target datalayout = "e-m:e-p270:32:32-p271:32:32-p272:64:64-i64:64-i128:128-f80:128-n8:16:32:64-S128"
target triple = "x86_64-pc-linux-gnu"

%"class.Imf_3_4::TimeCode" = type { i32, i32 }

; Function Attrs: mustprogress nounwind uwtable
define noundef nonnull align 4 dereferenceable(8) ptr @_ZN7Imf_3_48TimeCodeaSERKS0_(ptr noundef nonnull align 4 dereferenceable(8) %0, ptr noundef nonnull align 4 dereferenceable(8) %1) #0 align 2 {
  %3 = alloca ptr, align 8
  %4 = alloca ptr, align 8
  store ptr %0, ptr %3, align 8, !tbaa !3
  store ptr %1, ptr %4, align 8, !tbaa !3
  %5 = load ptr, ptr %3, align 8
  %6 = load ptr, ptr %4, align 8, !tbaa !3
  %7 = icmp ne ptr %6, %5
  br i1 %7, label %8, label %17

8:                                                ; preds = %2
  %9 = load ptr, ptr %4, align 8, !tbaa !3
  %10 = getelementptr inbounds nuw %"class.Imf_3_4::TimeCode", ptr %9, i32 0, i32 0
  %11 = load i32, ptr %10, align 4, !tbaa !8
  %12 = getelementptr inbounds nuw %"class.Imf_3_4::TimeCode", ptr %5, i32 0, i32 0
  store i32 %11, ptr %12, align 4, !tbaa !8
  %13 = load ptr, ptr %4, align 8, !tbaa !3
  %14 = getelementptr inbounds nuw %"class.Imf_3_4::TimeCode", ptr %13, i32 0, i32 1
  %15 = load i32, ptr %14, align 4, !tbaa !11
  %16 = getelementptr inbounds nuw %"class.Imf_3_4::TimeCode", ptr %5, i32 0, i32 1
  store i32 %15, ptr %16, align 4, !tbaa !11
  br label %17

17:                                               ; preds = %8, %2
  ret ptr %5
}