; Function Attrs: mustprogress nofree norecurse nosync nounwind willreturn memory(argmem: readwrite) uwtable
define noundef nonnull align 4 dereferenceable(8) ptr @_ZN7Imf_3_48TimeCodeaSERKS0_(ptr noundef nonnull returned writeonly align 4 dereferenceable(8) %0, ptr noundef nonnull readonly align 4 dereferenceable(8) %1) local_unnamed_addr #2 align 2 {
  %.not = icmp eq ptr %1, %0
  br i1 %.not, label %8, label %3

3:                                                ; preds = %2
  %4 = load i32, ptr %1, align 4, !tbaa !3
  store i32 %4, ptr %0, align 4, !tbaa !3
  %5 = getelementptr inbounds nuw i8, ptr %1, i64 4
  %6 = load i32, ptr %5, align 4, !tbaa !8
  %7 = getelementptr inbounds nuw i8, ptr %0, i64 4
  store i32 %6, ptr %7, align 4, !tbaa !8
  br label %8

8:                                                ; preds = %3, %2
  ret ptr %0
}